target datalayout = "e-m:e-p270:32:32-p271:32:32-p272:64:64-i64:64-i128:128-f80:128-n8:16:32:64-S128"
target triple = "x86_64-pc-linux-gnu"

%struct.strbuf = type { i64, i64, ptr }
%struct.dir_struct = type { i32, i32, i32, ptr, ptr, ptr, ptr, %struct.dir_struct_internal }
%struct.dir_struct_internal = type { i32, i32, [3 x %struct.exclude_list_group], ptr, ptr, %struct.strbuf, %struct.oid_stat, %struct.oid_stat, i32, i32, i32 }
%struct.exclude_list_group = type { i32, i32, ptr }
%struct.oid_stat = type { %struct.stat_data, %struct.object_id, i32 }
%struct.stat_data = type { %struct.cache_time, %struct.cache_time, i32, i32, i32, i32, i32 }
%struct.cache_time = type { i32, i32 }
%struct.object_id = type { [32 x i8], i32 }
%struct.dir_entry = type { i32, [0 x i8] }

@.str.33 = private unnamed_addr constant [27 x i8] c"size_t overflow: %lu + %lu\00", align 1
@.str.34 = private unnamed_addr constant [27 x i8] c"size_t overflow: %lu * %lu\00", align 1

; Function Attrs: inlinehint nounwind uwtable
define internal i64 @st_add(i64 noundef %0, i64 noundef %1) #3 {
  %3 = alloca i64, align 8
  %4 = alloca i64, align 8
  store i64 %0, ptr %3, align 8, !tbaa !19
  store i64 %1, ptr %4, align 8, !tbaa !19
  %5 = load i64, ptr %4, align 8, !tbaa !19
  %6 = load i64, ptr %3, align 8, !tbaa !19
  %7 = sub i64 -1, %6
  %8 = icmp ugt i64 %5, %7
  br i1 %8, label %9, label %12

9:                                                ; preds = %2
  %10 = load i64, ptr %3, align 8, !tbaa !19
  %11 = load i64, ptr %4, align 8, !tbaa !19
  call void (ptr, ...) @die(ptr noundef @.str.33, i64 noundef %10, i64 noundef %11) #14
  unreachable

12:                                               ; preds = %2
  %13 = load i64, ptr %3, align 8, !tbaa !19
  %14 = load i64, ptr %4, align 8, !tbaa !19
  %15 = add i64 %13, %14
  ret i64 %15
}

; Function Attrs: nounwind uwtable
define internal ptr @dir_entry_new(ptr noundef %0, i32 noundef %1) #0 {
  %3 = alloca ptr, align 8
  %4 = alloca i32, align 4
  %5 = alloca ptr, align 8
  %6 = alloca i64, align 8
  store ptr %0, ptr %3, align 8, !tbaa !13
  store i32 %1, ptr %4, align 4, !tbaa !16
  call void @llvm.lifetime.start.p0(i64 8, ptr %5) #12
  br label %7

7:                                                ; preds = %2
  call void @llvm.lifetime.start.p0(i64 8, ptr %6) #12
  %8 = load i32, ptr %4, align 4, !tbaa !16
  %9 = sext i32 %8 to i64
  store i64 %9, ptr %6, align 8, !tbaa !19
  %10 = load i64, ptr %6, align 8, !tbaa !19
  %11 = call i64 @st_add(i64 noundef 4, i64 noundef %10)
  %12 = call i64 @st_add(i64 noundef %11, i64 noundef 1)
  %13 = call ptr @xcalloc(i64 noundef 1, i64 noundef %12)
  store ptr %13, ptr %5, align 8, !tbaa !181
  %14 = load ptr, ptr %5, align 8, !tbaa !181
  %15 = getelementptr inbounds nuw %struct.dir_entry, ptr %14, i32 0, i32 1
  %16 = getelementptr inbounds [0 x i8], ptr %15, i64 0, i64 0
  %17 = load ptr, ptr %3, align 8, !tbaa !13
  %18 = load i64, ptr %6, align 8, !tbaa !19
  call void @llvm.memcpy.p0.p0.i64(ptr align 4 %16, ptr align 1 %17, i64 %18, i1 false)
  call void @llvm.lifetime.end.p0(i64 8, ptr %6) #12
  br label %19

19:                                               ; preds = %7
  br label %20

20:                                               ; preds = %19
  %21 = load i32, ptr %4, align 4, !tbaa !16
  %22 = load ptr, ptr %5, align 8, !tbaa !181
  %23 = getelementptr inbounds nuw %struct.dir_entry, ptr %22, i32 0, i32 0
  store i32 %21, ptr %23, align 4, !tbaa !16
  %24 = load ptr, ptr %5, align 8, !tbaa !181
  call void @llvm.lifetime.end.p0(i64 8, ptr %5) #12
  ret ptr %24
}

; Function Attrs: inlinehint nounwind uwtable
define internal i64 @st_mult(i64 noundef %0, i64 noundef %1) #3 {
  %3 = alloca i64, align 8
  %4 = alloca i64, align 8
  store i64 %0, ptr %3, align 8, !tbaa !19
  store i64 %1, ptr %4, align 8, !tbaa !19
  %5 = load i64, ptr %3, align 8, !tbaa !19
  %6 = icmp ne i64 %5, 0
  br i1 %6, label %7, label %15

7:                                                ; preds = %2
  %8 = load i64, ptr %4, align 8, !tbaa !19
  %9 = load i64, ptr %3, align 8, !tbaa !19
  %10 = udiv i64 -1, %9
  %11 = icmp ugt i64 %8, %10
  br i1 %11, label %12, label %15

12:                                               ; preds = %7
  %13 = load i64, ptr %3, align 8, !tbaa !19
  %14 = load i64, ptr %4, align 8, !tbaa !19
  call void (ptr, ...) @die(ptr noundef @.str.34, i64 noundef %13, i64 noundef %14) #14
  unreachable

15:                                               ; preds = %7, %2
  %16 = load i64, ptr %3, align 8, !tbaa !19
  %17 = load i64, ptr %4, align 8, !tbaa !19
  %18 = mul i64 %16, %17
  ret i64 %18
}

; Function Attrs: nounwind uwtable
define dso_local ptr @dir_add_ignored(ptr noundef %0, ptr noundef %1, ptr noundef %2, i32 noundef %3) #0 {
  %5 = alloca ptr, align 8
  %6 = alloca ptr, align 8
  %7 = alloca ptr, align 8
  %8 = alloca ptr, align 8
  %9 = alloca i32, align 4
  store ptr %0, ptr %6, align 8, !tbaa !39
  store ptr %1, ptr %7, align 8, !tbaa !41
  store ptr %2, ptr %8, align 8, !tbaa !13
  store i32 %3, ptr %9, align 4, !tbaa !16
  %10 = load ptr, ptr %7, align 8, !tbaa !41
  %11 = load ptr, ptr %8, align 8, !tbaa !13
  %12 = load i32, ptr %9, align 4, !tbaa !16
  %13 = call i32 @index_name_is_other(ptr noundef %10, ptr noundef %11, i32 noundef %12)
  %14 = icmp ne i32 %13, 0
  br i1 %14, label %16, label %15

15:                                               ; preds = %4
  store ptr null, ptr %5, align 8
  br label %86

16:                                               ; preds = %4
  br label %17

17:                                               ; preds = %16
  %18 = load ptr, ptr %6, align 8, !tbaa !39
  %19 = getelementptr inbounds nuw %struct.dir_struct, ptr %18, i32 0, i32 2
  %20 = load i32, ptr %19, align 8, !tbaa !76
  %21 = add nsw i32 %20, 1
  %22 = load ptr, ptr %6, align 8, !tbaa !39
  %23 = getelementptr inbounds nuw %struct.dir_struct, ptr %22, i32 0, i32 7
  %24 = getelementptr inbounds nuw %struct.dir_struct_internal, ptr %23, i32 0, i32 1
  %25 = load i32, ptr %24, align 4, !tbaa !180
  %26 = icmp sgt i32 %21, %25
  br i1 %26, label %27, label %72

27:                                               ; preds = %17
  %28 = load ptr, ptr %6, align 8, !tbaa !39
  %29 = getelementptr inbounds nuw %struct.dir_struct, ptr %28, i32 0, i32 7
  %30 = getelementptr inbounds nuw %struct.dir_struct_internal, ptr %29, i32 0, i32 1
  %31 = load i32, ptr %30, align 4, !tbaa !180
  %32 = add nsw i32 %31, 16
  %33 = mul nsw i32 %32, 3
  %34 = sdiv i32 %33, 2
  %35 = load ptr, ptr %6, align 8, !tbaa !39
  %36 = getelementptr inbounds nuw %struct.dir_struct, ptr %35, i32 0, i32 2
  %37 = load i32, ptr %36, align 8, !tbaa !76
  %38 = add nsw i32 %37, 1
  %39 = icmp slt i32 %34, %38
  br i1 %39, label %40, label %48

40:                                               ; preds = %27
  %41 = load ptr, ptr %6, align 8, !tbaa !39
  %42 = getelementptr inbounds nuw %struct.dir_struct, ptr %41, i32 0, i32 2
  %43 = load i32, ptr %42, align 8, !tbaa !76
  %44 = add nsw i32 %43, 1
  %45 = load ptr, ptr %6, align 8, !tbaa !39
  %46 = getelementptr inbounds nuw %struct.dir_struct, ptr %45, i32 0, i32 7
  %47 = getelementptr inbounds nuw %struct.dir_struct_internal, ptr %46, i32 0, i32 1
  store i32 %44, ptr %47, align 4, !tbaa !180
  br label %59

48:                                               ; preds = %27
  %49 = load ptr, ptr %6, align 8, !tbaa !39
  %50 = getelementptr inbounds nuw %struct.dir_struct, ptr %49, i32 0, i32 7
  %51 = getelementptr inbounds nuw %struct.dir_struct_internal, ptr %50, i32 0, i32 1
  %52 = load i32, ptr %51, align 4, !tbaa !180
  %53 = add nsw i32 %52, 16
  %54 = mul nsw i32 %53, 3
  %55 = sdiv i32 %54, 2
  %56 = load ptr, ptr %6, align 8, !tbaa !39
  %57 = getelementptr inbounds nuw %struct.dir_struct, ptr %56, i32 0, i32 7
  %58 = getelementptr inbounds nuw %struct.dir_struct_internal, ptr %57, i32 0, i32 1
  store i32 %55, ptr %58, align 4, !tbaa !180
  br label %59

59:                                               ; preds = %48, %40
  %60 = load ptr, ptr %6, align 8, !tbaa !39
  %61 = getelementptr inbounds nuw %struct.dir_struct, ptr %60, i32 0, i32 4
  %62 = load ptr, ptr %61, align 8, !tbaa !75
  %63 = load ptr, ptr %6, align 8, !tbaa !39
  %64 = getelementptr inbounds nuw %struct.dir_struct, ptr %63, i32 0, i32 7
  %65 = getelementptr inbounds nuw %struct.dir_struct_internal, ptr %64, i32 0, i32 1
  %66 = load i32, ptr %65, align 4, !tbaa !180
  %67 = sext i32 %66 to i64
  %68 = call i64 @st_mult(i64 noundef 8, i64 noundef %67)
  %69 = call ptr @xrealloc(ptr noundef %62, i64 noundef %68)
  %70 = load ptr, ptr %6, align 8, !tbaa !39
  %71 = getelementptr inbounds nuw %struct.dir_struct, ptr %70, i32 0, i32 4
  store ptr %69, ptr %71, align 8, !tbaa !75
  br label %72

72:                                               ; preds = %59, %17
  br label %73

73:                                               ; preds = %72
  %74 = load ptr, ptr %8, align 8, !tbaa !13
  %75 = load i32, ptr %9, align 4, !tbaa !16
  %76 = call ptr @dir_entry_new(ptr noundef %74, i32 noundef %75)
  %77 = load ptr, ptr %6, align 8, !tbaa !39
  %78 = getelementptr inbounds nuw %struct.dir_struct, ptr %77, i32 0, i32 4
  %79 = load ptr, ptr %78, align 8, !tbaa !75
  %80 = load ptr, ptr %6, align 8, !tbaa !39
  %81 = getelementptr inbounds nuw %struct.dir_struct, ptr %80, i32 0, i32 2
  %82 = load i32, ptr %81, align 8, !tbaa !76
  %83 = add nsw i32 %82, 1
  store i32 %83, ptr %81, align 8, !tbaa !76
  %84 = sext i32 %82 to i64
  %85 = getelementptr inbounds ptr, ptr %79, i64 %84
  store ptr %76, ptr %85, align 8, !tbaa !181
  store ptr %76, ptr %5, align 8
  br label %86

86:                                               ; preds = %73, %15
  %87 = load ptr, ptr %5, align 8
  ret ptr %87
}