; Function Attrs: nounwind uwtable
define dso_local noundef ptr @dir_add_ignored(ptr noundef captures(none) %0, ptr noundef %1, ptr noundef %2, i32 noundef %3) local_unnamed_addr #0 {
  %5 = tail call i32 @index_name_is_other(ptr noundef %1, ptr noundef %2, i32 noundef %3) #27
  %.not = icmp eq i32 %5, 0
  br i1 %.not, label %37, label %6

6:                                                ; preds = %4
  %7 = getelementptr inbounds nuw i8, ptr %0, i64 8
  %8 = load i32, ptr %7, align 8, !tbaa !78
  %9 = getelementptr inbounds nuw i8, ptr %0, i64 52
  %10 = load i32, ptr %9, align 4, !tbaa !162
  %.not21 = icmp slt i32 %8, %10
  br i1 %.not21, label %22, label %11

11:                                               ; preds = %6
  %12 = add nsw i32 %8, 1
  %13 = mul i32 %10, 3
  %14 = add i32 %13, 48
  %15 = sdiv i32 %14, 2
  %.not22 = icmp sgt i32 %15, %8
  %. = select i1 %.not22, i32 %15, i32 %12
  store i32 %., ptr %9, align 4, !tbaa !162
  %16 = sext i32 %. to i64
  %mul.ov.i = icmp slt i32 %., 0
  br i1 %mul.ov.i, label %17, label %st_mult.exit

17:                                               ; preds = %11
  tail call void (ptr, ...) @die(ptr noundef nonnull @.str.34, i64 noundef 8, i64 noundef %16) #29
  unreachable

st_mult.exit:                                     ; preds = %11
  %18 = getelementptr inbounds nuw i8, ptr %0, i64 24
  %19 = load ptr, ptr %18, align 8, !tbaa !79
  %20 = shl nuw nsw i64 %16, 3
  %21 = tail call ptr @xrealloc(ptr noundef %19, i64 noundef %20) #27
  store ptr %21, ptr %18, align 8, !tbaa !79
  br label %22

22:                                               ; preds = %6, %st_mult.exit
  %23 = sext i32 %3 to i64
  %24 = icmp ugt i32 %3, -5
  br i1 %24, label %25, label %st_add.exit.i

25:                                               ; preds = %22
  tail call void (ptr, ...) @die(ptr noundef nonnull @.str.33, i64 noundef 4, i64 noundef %23) #29
  unreachable

st_add.exit.i:                                    ; preds = %22
  %26 = icmp eq i32 %3, -5
  br i1 %26, label %27, label %dir_entry_new.exit

27:                                               ; preds = %st_add.exit.i
  tail call void (ptr, ...) @die(ptr noundef nonnull @.str.33, i64 noundef -1, i64 noundef 1) #29
  unreachable

dir_entry_new.exit:                               ; preds = %st_add.exit.i
  %28 = add nsw i64 %23, 5
  %29 = tail call noundef ptr @xcalloc(i64 noundef 1, i64 noundef %28) #27
  %30 = getelementptr inbounds nuw i8, ptr %29, i64 4
  tail call void @llvm.memcpy.p0.p0.i64(ptr nonnull align 4 %30, ptr readonly align 1 %2, i64 %23, i1 false)
  store i32 %3, ptr %29, align 4, !tbaa !10
  %31 = getelementptr inbounds nuw i8, ptr %0, i64 24
  %32 = load ptr, ptr %31, align 8, !tbaa !79
  %33 = load i32, ptr %7, align 8, !tbaa !78
  %34 = add nsw i32 %33, 1
  store i32 %34, ptr %7, align 8, !tbaa !78
  %35 = sext i32 %33 to i64
  %36 = getelementptr inbounds ptr, ptr %32, i64 %35
  store ptr %29, ptr %36, align 8, !tbaa !163
  br label %37

37:                                               ; preds = %4, %dir_entry_new.exit
  %.0 = phi ptr [ %29, %dir_entry_new.exit ], [ null, %4 ]
  ret ptr %.0
}